; ModuleID = '60/1918.c'
source_filename = "60/1918.c"
target datalayout = "e-m:e-p270:32:32-p271:32:32-p272:64:64-i64:64-f80:128-n8:16:32:64-S128"
target triple = "x86_64-pc-linux-gnu"

@.str = private unnamed_addr constant [3 x i8] c"%d\00", align 1
@.str.1 = private unnamed_addr constant [7 x i8] c"%d %d\0A\00", align 1
@.str.2 = private unnamed_addr constant [6 x i8] c"empty\00", align 1

; Function Attrs: noinline nounwind uwtable
define dso_local i32 @main() #0 {
  %1 = alloca i32, align 4
  %2 = alloca i32, align 4
  %3 = alloca i32, align 4
  %4 = alloca i32, align 4
  %5 = alloca i32, align 4
  %6 = alloca i32, align 4
  %7 = alloca i32, align 4
  %8 = alloca i32, align 4
  %9 = alloca i32, align 4
  %10 = alloca i32, align 4
  %11 = alloca i32, align 4
  store i32 0, i32* %1, align 4
  store i32 0, i32* %9, align 4
  store i32 0, i32* %10, align 4
  store i32 0, i32* %11, align 4
  %12 = call i32 (i8*, ...) @__isoc99_scanf(i8* getelementptr inbounds ([3 x i8], [3 x i8]* @.str, i64 0, i64 0), i32* %8)
  store i32 2, i32* %2, align 4
  br label %13

13:                                               ; preds = %70, %0
  %14 = load i32, i32* %2, align 4
  %15 = load i32, i32* %8, align 4
  %16 = sub nsw i32 %15, 1
  %17 = icmp slt i32 %14, %16
  br i1 %17, label %18, label %73

18:                                               ; preds = %13
  %19 = load i32, i32* %2, align 4
  %20 = sitofp i32 %19 to double
  %21 = call double @sqrt(double %20) #3
  %22 = fptosi double %21 to i32
  store i32 %22, i32* %6, align 4
  store i32 2, i32* %3, align 4
  br label %23

23:                                               ; preds = %34, %18
  %24 = load i32, i32* %3, align 4
  %25 = load i32, i32* %6, align 4
  %26 = icmp sle i32 %24, %25
  br i1 %26, label %27, label %37

27:                                               ; preds = %23
  %28 = load i32, i32* %2, align 4
  %29 = load i32, i32* %3, align 4
  %30 = srem i32 %28, %29
  %31 = icmp eq i32 %30, 0
  br i1 %31, label %32, label %33

32:                                               ; preds = %27
  store i32 1, i32* %9, align 4
  br label %37

33:                                               ; preds = %27
  br label %34

34:                                               ; preds = %33
  %35 = load i32, i32* %3, align 4
  %36 = add nsw i32 %35, 1
  store i32 %36, i32* %3, align 4
  br label %23

37:                                               ; preds = %32, %23
  %38 = load i32, i32* %9, align 4
  %39 = icmp eq i32 %38, 0
  br i1 %39, label %40, label %69

40:                                               ; preds = %37
  %41 = load i32, i32* %2, align 4
  %42 = add nsw i32 %41, 2
  store i32 %42, i32* %5, align 4
  %43 = load i32, i32* %5, align 4
  %44 = sitofp i32 %43 to double
  %45 = call double @sqrt(double %44) #3
  %46 = fptosi double %45 to i32
  store i32 %46, i32* %7, align 4
  store i32 2, i32* %4, align 4
  br label %47

47:                                               ; preds = %58, %40
  %48 = load i32, i32* %4, align 4
  %49 = load i32, i32* %7, align 4
  %50 = icmp sle i32 %48, %49
  br i1 %50, label %51, label %61

51:                                               ; preds = %47
  %52 = load i32, i32* %5, align 4
  %53 = load i32, i32* %4, align 4
  %54 = srem i32 %52, %53
  %55 = icmp eq i32 %54, 0
  br i1 %55, label %56, label %57

56:                                               ; preds = %51
  store i32 1, i32* %10, align 4
  br label %61

57:                                               ; preds = %51
  br label %58

58:                                               ; preds = %57
  %59 = load i32, i32* %4, align 4
  %60 = add nsw i32 %59, 1
  store i32 %60, i32* %4, align 4
  br label %47

61:                                               ; preds = %56, %47
  %62 = load i32, i32* %10, align 4
  %63 = icmp eq i32 %62, 0
  br i1 %63, label %64, label %68

64:                                               ; preds = %61
  %65 = load i32, i32* %2, align 4
  %66 = load i32, i32* %5, align 4
  %67 = call i32 (i8*, ...) @printf(i8* getelementptr inbounds ([7 x i8], [7 x i8]* @.str.1, i64 0, i64 0), i32 %65, i32 %66)
  store i32 1, i32* %11, align 4
  br label %68

68:                                               ; preds = %64, %61
  br label %69

69:                                               ; preds = %68, %37
  store i32 0, i32* %9, align 4
  store i32 0, i32* %10, align 4
  br label %70

70:                                               ; preds = %69
  %71 = load i32, i32* %2, align 4
  %72 = add nsw i32 %71, 1
  store i32 %72, i32* %2, align 4
  br label %13

73:                                               ; preds = %13
  %74 = load i32, i32* %11, align 4
  %75 = icmp eq i32 %74, 0
  br i1 %75, label %76, label %78

76:                                               ; preds = %73
  %77 = call i32 (i8*, ...) @printf(i8* getelementptr inbounds ([6 x i8], [6 x i8]* @.str.2, i64 0, i64 0))
  br label %78

78:                                               ; preds = %76, %73
  %79 = load i32, i32* %1, align 4
  ret i32 %79
}

declare dso_local i32 @__isoc99_scanf(i8*, ...) #1

; Function Attrs: nounwind
declare dso_local double @sqrt(double) #2

declare dso_local i32 @printf(i8*, ...) #1


!llvm.module.flags = !{!0}
!llvm.ident = !{!1}

!0 = !{i32 1, !"wchar_size", i32 4}
!1 = !{!"clang version 10.0.0-4ubuntu1 "}
